target datalayout = "e-m:e-p270:32:32-p271:32:32-p272:64:64-i64:64-i128:128-f80:128-n8:16:32:64-S128"
target triple = "x86_64-pc-linux-gnu"

%struct.usbll_endpoint_info = type { i32, i32, i16, i8, i8, i32, i32, i32, i32 }

@.str.178 = private unnamed_addr constant [29 x i8] c"%s:%u: failed assertion \22%s\22\00", align 1
@.str.179 = private unnamed_addr constant [31 x i8] c"epan/dissectors/packet-usbll.c\00", align 1
@ep_info_in = internal global ptr null, align 8
@ep_info_out = internal global ptr null, align 8
@.str.200 = private unnamed_addr constant [29 x i8] c"(addr >= 0) && (addr <= 127)\00", align 1

; Function Attrs: nounwind null_pointer_is_valid sspstrong uwtable
define internal void @usbll_reset_endpoint_info(ptr noundef %0, i32 noundef %1, i16 noundef zeroext %2) #3 {
  %4 = alloca ptr, align 8
  %5 = alloca i32, align 4
  %6 = alloca i16, align 2
  store ptr %0, ptr %4, align 8
  store i32 %1, ptr %5, align 4
  store i16 %2, ptr %6, align 2
  %7 = load i32, ptr %5, align 4
  %8 = load ptr, ptr %4, align 8
  %9 = getelementptr inbounds nuw %struct.usbll_endpoint_info, ptr %8, i32 0, i32 0
  store i32 %7, ptr %9, align 4
  %10 = load ptr, ptr %4, align 8
  %11 = getelementptr inbounds nuw %struct.usbll_endpoint_info, ptr %10, i32 0, i32 1
  store i32 0, ptr %11, align 4
  %12 = load i16, ptr %6, align 2
  %13 = load ptr, ptr %4, align 8
  %14 = getelementptr inbounds nuw %struct.usbll_endpoint_info, ptr %13, i32 0, i32 2
  store i16 %12, ptr %14, align 4
  %15 = load ptr, ptr %4, align 8
  %16 = getelementptr inbounds nuw %struct.usbll_endpoint_info, ptr %15, i32 0, i32 3
  store i8 0, ptr %16, align 2
  %17 = load ptr, ptr %4, align 8
  %18 = getelementptr inbounds nuw %struct.usbll_endpoint_info, ptr %17, i32 0, i32 4
  store i8 0, ptr %18, align 1
  %19 = load ptr, ptr %4, align 8
  %20 = getelementptr inbounds nuw %struct.usbll_endpoint_info, ptr %19, i32 0, i32 5
  store i32 0, ptr %20, align 4
  %21 = load ptr, ptr %4, align 8
  %22 = getelementptr inbounds nuw %struct.usbll_endpoint_info, ptr %21, i32 0, i32 6
  store i32 0, ptr %22, align 4
  %23 = load ptr, ptr %4, align 8
  %24 = getelementptr inbounds nuw %struct.usbll_endpoint_info, ptr %23, i32 0, i32 7
  store i32 0, ptr %24, align 4
  %25 = load ptr, ptr %4, align 8
  %26 = getelementptr inbounds nuw %struct.usbll_endpoint_info, ptr %25, i32 0, i32 8
  store i32 0, ptr %26, align 4
  ret void
}

; Function Attrs: null_pointer_is_valid sspstrong uwtable
define internal void @usbll_reset_device_endpoints(i32 noundef %0) #0 {
  %2 = alloca i32, align 4
  %3 = alloca i32, align 4
  store i32 %0, ptr %2, align 4
  call void @llvm.lifetime.start.p0(i64 4, ptr %3) #11
  %4 = load i32, ptr %2, align 4
  %5 = icmp sge i32 %4, 0
  br i1 %5, label %6, label %10

6:                                                ; preds = %1
  %7 = load i32, ptr %2, align 4
  %8 = icmp sle i32 %7, 127
  br i1 %8, label %9, label %10

9:                                                ; preds = %6
  br label %12

10:                                               ; preds = %6, %1
  call void (ptr, ...) @proto_report_dissector_bug(ptr noundef @.str.178, ptr noundef @.str.179, i32 noundef 1457, ptr noundef @.str.200) #14
  unreachable

11:                                               ; No predecessors!
  br label %12

12:                                               ; preds = %11, %9
  %13 = load ptr, ptr @ep_info_in, align 8
  %14 = load i32, ptr %2, align 4
  %15 = sext i32 %14 to i64
  %16 = getelementptr ptr, ptr %13, i64 %15
  %17 = load ptr, ptr %16, align 8
  %18 = getelementptr %struct.usbll_endpoint_info, ptr %17, i64 0
  call void @usbll_reset_endpoint_info(ptr noundef %18, i32 noundef 1, i16 noundef zeroext 0)
  %19 = load ptr, ptr @ep_info_out, align 8
  %20 = load i32, ptr %2, align 4
  %21 = sext i32 %20 to i64
  %22 = getelementptr ptr, ptr %19, i64 %21
  %23 = load ptr, ptr %22, align 8
  %24 = getelementptr %struct.usbll_endpoint_info, ptr %23, i64 0
  call void @usbll_reset_endpoint_info(ptr noundef %24, i32 noundef 1, i16 noundef zeroext 0)
  store i32 1, ptr %3, align 4
  br label %25

25:                                               ; preds = %45, %12
  %26 = load i32, ptr %3, align 4
  %27 = icmp slt i32 %26, 16
  br i1 %27, label %28, label %48

28:                                               ; preds = %25
  %29 = load ptr, ptr @ep_info_in, align 8
  %30 = load i32, ptr %2, align 4
  %31 = sext i32 %30 to i64
  %32 = getelementptr ptr, ptr %29, i64 %31
  %33 = load ptr, ptr %32, align 8
  %34 = load i32, ptr %3, align 4
  %35 = sext i32 %34 to i64
  %36 = getelementptr %struct.usbll_endpoint_info, ptr %33, i64 %35
  call void @usbll_reset_endpoint_info(ptr noundef %36, i32 noundef 0, i16 noundef zeroext 0)
  %37 = load ptr, ptr @ep_info_out, align 8
  %38 = load i32, ptr %2, align 4
  %39 = sext i32 %38 to i64
  %40 = getelementptr ptr, ptr %37, i64 %39
  %41 = load ptr, ptr %40, align 8
  %42 = load i32, ptr %3, align 4
  %43 = sext i32 %42 to i64
  %44 = getelementptr %struct.usbll_endpoint_info, ptr %41, i64 %43
  call void @usbll_reset_endpoint_info(ptr noundef %44, i32 noundef 0, i16 noundef zeroext 0)
  br label %45

45:                                               ; preds = %28
  %46 = load i32, ptr %3, align 4
  %47 = add i32 %46, 1
  store i32 %47, ptr %3, align 4
  br label %25, !llvm.loop !11

48:                                               ; preds = %25
  call void @llvm.lifetime.end.p0(i64 4, ptr %3) #11
  ret void
}