; Function Attrs: null_pointer_is_valid sspstrong uwtable
define internal fastcc void @usbll_reset_device_endpoints(i32 noundef range(i32 -2147483648, 256) %0) unnamed_addr #2 {
  %or.cond = icmp ult i32 %0, 128
  br i1 %or.cond, label %3, label %2

2:                                                ; preds = %1
  tail call void (ptr, ...) @proto_report_dissector_bug(ptr noundef nonnull @.str.178, ptr noundef nonnull @.str.179, i32 noundef 1457, ptr noundef nonnull @.str.200) #15
  unreachable

3:                                                ; preds = %1
  %4 = load ptr, ptr @ep_info_in, align 8
  %5 = zext nneg i32 %0 to i64
  %6 = getelementptr ptr, ptr %4, i64 %5
  %7 = load ptr, ptr %6, align 8
  store i32 1, ptr %7, align 4
  %8 = getelementptr inbounds nuw i8, ptr %7, i64 4
  tail call void @llvm.memset.p0.i64(ptr noundef nonnull align 4 dereferenceable(24) %8, i8 0, i64 24, i1 false)
  %9 = load ptr, ptr @ep_info_out, align 8
  %10 = getelementptr ptr, ptr %9, i64 %5
  %11 = load ptr, ptr %10, align 8
  store i32 1, ptr %11, align 4
  %12 = getelementptr inbounds nuw i8, ptr %11, i64 4
  tail call void @llvm.memset.p0.i64(ptr noundef nonnull align 4 dereferenceable(24) %12, i8 0, i64 24, i1 false)
  br label %13

13:                                               ; preds = %3, %13
  %indvars.iv = phi i64 [ 1, %3 ], [ %indvars.iv.next, %13 ]
  %14 = load ptr, ptr %6, align 8
  %15 = getelementptr %struct.usbll_endpoint_info, ptr %14, i64 %indvars.iv
  tail call void @llvm.memset.p0.i64(ptr noundef align 4 dereferenceable(28) %15, i8 0, i64 28, i1 false)
  %16 = load ptr, ptr %10, align 8
  %17 = getelementptr %struct.usbll_endpoint_info, ptr %16, i64 %indvars.iv
  %indvars.iv.next = add nuw nsw i64 %indvars.iv, 1
  %exitcond.not = icmp eq i64 %indvars.iv.next, 16
  tail call void @llvm.memset.p0.i64(ptr noundef align 4 dereferenceable(28) %17, i8 0, i64 28, i1 false)
  br i1 %exitcond.not, label %18, label %13, !llvm.loop !13

18:                                               ; preds = %13
  ret void
}